; ModuleID = '28/770.c'
source_filename = "28/770.c"
target datalayout = "e-m:e-p270:32:32-p271:32:32-p272:64:64-i64:64-f80:128-n8:16:32:64-S128"
target triple = "x86_64-pc-linux-gnu"

@.str = private unnamed_addr constant [4 x i8] c"%d,\00", align 1
@.str.1 = private unnamed_addr constant [3 x i8] c"%d\00", align 1

; Function Attrs: noinline nounwind uwtable
define dso_local void @main() #0 {
  %1 = alloca i8*, align 8
  %2 = alloca i8*, align 8
  %3 = alloca i32, align 4
  %4 = alloca i32, align 4
  %5 = call noalias i8* @malloc(i64 1000) #3
  store i8* %5, i8** %1, align 8
  %6 = load i8*, i8** %1, align 8
  store i8* %6, i8** %2, align 8
  store i32 0, i32* %3, align 4
  store i32 1, i32* %4, align 4
  %7 = load i8*, i8** %1, align 8
  %8 = call i32 (i8*, ...) bitcast (i32 (...)* @gets to i32 (i8*, ...)*)(i8* %7)
  %9 = load i8*, i8** %1, align 8
  store i8* %9, i8** %2, align 8
  br label %10

10:                                               ; preds = %46, %0
  %11 = load i8*, i8** %2, align 8
  %12 = load i8, i8* %11, align 1
  %13 = sext i8 %12 to i32
  %14 = icmp ne i32 %13, 0
  br i1 %14, label %15, label %49

15:                                               ; preds = %10
  %16 = load i8*, i8** %2, align 8
  %17 = load i8, i8* %16, align 1
  %18 = sext i8 %17 to i32
  %19 = icmp eq i32 %18, 32
  br i1 %19, label %20, label %24

20:                                               ; preds = %15
  %21 = load i32, i32* %4, align 4
  %22 = icmp eq i32 %21, 0
  br i1 %22, label %23, label %24

23:                                               ; preds = %20
  store i32 0, i32* %3, align 4
  br label %45

24:                                               ; preds = %20, %15
  %25 = load i8*, i8** %2, align 8
  %26 = load i8, i8* %25, align 1
  %27 = sext i8 %26 to i32
  %28 = icmp eq i32 %27, 32
  br i1 %28, label %29, label %35

29:                                               ; preds = %24
  %30 = load i32, i32* %4, align 4
  %31 = icmp eq i32 %30, 1
  br i1 %31, label %32, label %35

32:                                               ; preds = %29
  %33 = load i32, i32* %3, align 4
  %34 = call i32 (i8*, ...) @printf(i8* getelementptr inbounds ([4 x i8], [4 x i8]* @.str, i64 0, i64 0), i32 %33)
  store i32 0, i32* %4, align 4
  store i32 0, i32* %3, align 4
  br label %44

35:                                               ; preds = %29, %24
  %36 = load i8*, i8** %2, align 8
  %37 = load i8, i8* %36, align 1
  %38 = sext i8 %37 to i32
  %39 = icmp ne i32 %38, 32
  br i1 %39, label %40, label %43

40:                                               ; preds = %35
  %41 = load i32, i32* %3, align 4
  %42 = add nsw i32 %41, 1
  store i32 %42, i32* %3, align 4
  store i32 1, i32* %4, align 4
  br label %43

43:                                               ; preds = %40, %35
  br label %44

44:                                               ; preds = %43, %32
  br label %45

45:                                               ; preds = %44, %23
  br label %46

46:                                               ; preds = %45
  %47 = load i8*, i8** %2, align 8
  %48 = getelementptr inbounds i8, i8* %47, i32 1
  store i8* %48, i8** %2, align 8
  br label %10

49:                                               ; preds = %10
  %50 = load i8*, i8** %2, align 8
  %51 = load i8, i8* %50, align 1
  %52 = sext i8 %51 to i32
  %53 = icmp eq i32 %52, 0
  br i1 %53, label %54, label %60

54:                                               ; preds = %49
  %55 = load i32, i32* %4, align 4
  %56 = icmp eq i32 %55, 1
  br i1 %56, label %57, label %60

57:                                               ; preds = %54
  %58 = load i32, i32* %3, align 4
  %59 = call i32 (i8*, ...) @printf(i8* getelementptr inbounds ([3 x i8], [3 x i8]* @.str.1, i64 0, i64 0), i32 %58)
  br label %60

60:                                               ; preds = %57, %54, %49
  ret void
}

; Function Attrs: nounwind
declare dso_local noalias i8* @malloc(i64) #1

declare dso_local i32 @gets(...) #2

declare dso_local i32 @printf(i8*, ...) #2


!llvm.module.flags = !{!0}
!llvm.ident = !{!1}

!0 = !{i32 1, !"wchar_size", i32 4}
!1 = !{!"clang version 10.0.0-4ubuntu1 "}
